; Function Attrs: nounwind uwtable
define void @glfwGetCursorPos(ptr noundef %0, ptr noundef %1, ptr noundef %2) local_unnamed_addr #0 {
  %.not = icmp eq ptr %1, null
  br i1 %.not, label %5, label %4

4:                                                ; preds = %3
  store double 0.000000e+00, ptr %1, align 8, !tbaa !179
  br label %5

5:                                                ; preds = %4, %3
  %.not17 = icmp eq ptr %2, null
  br i1 %.not17, label %7, label %6

6:                                                ; preds = %5
  store double 0.000000e+00, ptr %2, align 8, !tbaa !179
  br label %7

7:                                                ; preds = %6, %5
  %8 = load i32, ptr @_glfw, align 8, !tbaa !170
  %.not18 = icmp eq i32 %8, 0
  br i1 %.not18, label %9, label %10

9:                                                ; preds = %7
  tail call void (i32, ptr, ...) @_glfwInputError(i32 noundef 65537, ptr noundef null) #12
  br label %24

10:                                               ; preds = %7
  %11 = getelementptr inbounds nuw i8, ptr %0, i64 140
  %12 = load i32, ptr %11, align 4, !tbaa !171
  %13 = icmp eq i32 %12, 212995
  br i1 %13, label %14, label %22

14:                                               ; preds = %10
  br i1 %.not, label %18, label %15

15:                                               ; preds = %14
  %16 = getelementptr inbounds nuw i8, ptr %0, i64 504
  %17 = load double, ptr %16, align 8, !tbaa !58
  store double %17, ptr %1, align 8, !tbaa !179
  br label %18

18:                                               ; preds = %15, %14
  br i1 %.not17, label %24, label %19

19:                                               ; preds = %18
  %20 = getelementptr inbounds nuw i8, ptr %0, i64 512
  %21 = load double, ptr %20, align 8, !tbaa !59
  store double %21, ptr %2, align 8, !tbaa !179
  br label %24

22:                                               ; preds = %10
  %23 = load ptr, ptr getelementptr inbounds nuw (i8, ptr @_glfw, i64 64), align 8, !tbaa !173
  tail call void %23(ptr noundef nonnull %0, ptr noundef %1, ptr noundef %2) #12
  br label %24

24:                                               ; preds = %22, %19, %18, %9
  ret void
}